; Function Attrs: mustprogress uwtable
define void @_ZN6icu_7513UnicodeStringC2EPKDs(ptr noundef nonnull align 8 dereferenceable(64) %this, ptr noundef %text) unnamed_addr #5 align 2 personality ptr @__gxx_personality_v0 {
entry:
  store ptr getelementptr inbounds ({ [13 x ptr] }, ptr @_ZTVN6icu_7513UnicodeStringE, i64 0, i32 0, i64 2), ptr %this, align 8
  %fUnion2 = getelementptr inbounds i8, ptr %this, i64 8
  store i16 2, ptr %fUnion2, align 8
  %call = invoke noundef nonnull align 8 dereferenceable(64) ptr @_ZN6icu_7513UnicodeString8doAppendEPKDsii(ptr noundef nonnull align 8 dereferenceable(64) %this, ptr noundef %text, i32 noundef 0, i32 noundef -1)
          to label %invoke.cont unwind label %lpad

invoke.cont:                                      ; preds = %entry
  ret void

lpad:                                             ; preds = %entry
  %0 = landingpad { ptr, i32 }
          cleanup
  tail call void @_ZN6icu_757UObjectD2Ev(ptr noundef nonnull align 8 dereferenceable(8) %this) #22
  resume { ptr, i32 } %0
}